; Function Attrs: mustprogress uwtable
define hidden void @_ZN8subtermsC2ERK10ref_vectorI4expr11ast_managerEbP10ptr_vectorIS1_EP8obj_markIS1_10bit_vector14default_t2uintIS1_EE(ptr noundef nonnull align 8 dereferenceable(40) initializes((0, 1), (8, 24)) %0, ptr noundef nonnull readonly align 8 captures(none) dereferenceable(16) %1, i1 noundef zeroext %2, ptr noundef %3, ptr noundef %4) unnamed_addr #3 align 2 personality ptr @__gxx_personality_v0 {
  %6 = zext i1 %2 to i8
  store i8 %6, ptr %0, align 8, !tbaa !73
  %7 = getelementptr inbounds nuw i8, ptr %0, i64 8
  %8 = load ptr, ptr %1, align 8, !tbaa !82
  %9 = ptrtoint ptr %8 to i64
  store i64 %9, ptr %7, align 8, !tbaa !83
  %10 = getelementptr inbounds nuw i8, ptr %0, i64 16
  store ptr null, ptr %10, align 8, !tbaa !58
  %11 = getelementptr inbounds nuw i8, ptr %1, i64 8
  br label %12

12:                                               ; preds = %_ZN15ref_vector_coreI4expr19ref_manager_wrapperIS0_11ast_managerEE9push_backEPS0_.exit.i.i, %5
  %13 = phi ptr [ %36, %_ZN15ref_vector_coreI4expr19ref_manager_wrapperIS0_11ast_managerEE9push_backEPS0_.exit.i.i ], [ null, %5 ]
  %indvars.iv.i.i = phi i64 [ %indvars.iv.next.i.i, %_ZN15ref_vector_coreI4expr19ref_manager_wrapperIS0_11ast_managerEE9push_backEPS0_.exit.i.i ], [ 0, %5 ]
  %14 = load ptr, ptr %11, align 8, !tbaa !58
  %15 = icmp eq ptr %14, null
  br i1 %15, label %_ZNK15ref_vector_coreI4expr19ref_manager_wrapperIS0_11ast_managerEE4sizeEv.exit.i.i, label %16

16:                                               ; preds = %12
  %17 = getelementptr inbounds i8, ptr %14, i64 -4
  %18 = load i32, ptr %17, align 4, !tbaa !56
  %19 = zext i32 %18 to i64
  br label %_ZNK15ref_vector_coreI4expr19ref_manager_wrapperIS0_11ast_managerEE4sizeEv.exit.i.i

_ZNK15ref_vector_coreI4expr19ref_manager_wrapperIS0_11ast_managerEE4sizeEv.exit.i.i: ; preds = %16, %12
  %.0.i.i.i.i = phi i64 [ %19, %16 ], [ 0, %12 ]
  %20 = icmp samesign ult i64 %indvars.iv.i.i, %.0.i.i.i.i
  br i1 %20, label %21, label %_ZN10ref_vectorI4expr11ast_managerEC2ERKS2_.exit

21:                                               ; preds = %_ZNK15ref_vector_coreI4expr19ref_manager_wrapperIS0_11ast_managerEE4sizeEv.exit.i.i
  %22 = getelementptr inbounds nuw ptr, ptr %14, i64 %indvars.iv.i.i
  %23 = load ptr, ptr %22, align 8, !tbaa !35
  %.not.i.i.i.i.i.i = icmp eq ptr %23, null
  br i1 %.not.i.i.i.i.i.i, label %_ZN15ref_vector_coreI4expr19ref_manager_wrapperIS0_11ast_managerEE7inc_refEPS0_.exit.i.i.i, label %24

24:                                               ; preds = %21
  %25 = getelementptr inbounds nuw i8, ptr %23, i64 8
  %26 = load i32, ptr %25, align 4, !tbaa !8
  %27 = add i32 %26, 1
  store i32 %27, ptr %25, align 4, !tbaa !8
  br label %_ZN15ref_vector_coreI4expr19ref_manager_wrapperIS0_11ast_managerEE7inc_refEPS0_.exit.i.i.i

_ZN15ref_vector_coreI4expr19ref_manager_wrapperIS0_11ast_managerEE7inc_refEPS0_.exit.i.i.i: ; preds = %24, %21
  %28 = icmp eq ptr %13, null
  br i1 %28, label %35, label %29

29:                                               ; preds = %_ZN15ref_vector_coreI4expr19ref_manager_wrapperIS0_11ast_managerEE7inc_refEPS0_.exit.i.i.i
  %30 = getelementptr inbounds i8, ptr %13, i64 -4
  %31 = load i32, ptr %30, align 4, !tbaa !56
  %32 = getelementptr inbounds i8, ptr %13, i64 -8
  %33 = load i32, ptr %32, align 4, !tbaa !56
  %34 = icmp eq i32 %31, %33
  br i1 %34, label %35, label %_ZN15ref_vector_coreI4expr19ref_manager_wrapperIS0_11ast_managerEE9push_backEPS0_.exit.i.i

35:                                               ; preds = %29, %_ZN15ref_vector_coreI4expr19ref_manager_wrapperIS0_11ast_managerEE7inc_refEPS0_.exit.i.i.i
  invoke void @_ZN6vectorIP4exprLb0EjE13expand_vectorEv(ptr noundef nonnull align 8 dereferenceable(8) %10)
          to label %.noexc.i unwind label %42

.noexc.i:                                         ; preds = %35
  %.pre.i.i.i.i = load ptr, ptr %10, align 8, !tbaa !58
  %.phi.trans.insert.i.i.i.i = getelementptr inbounds i8, ptr %.pre.i.i.i.i, i64 -4
  %.pre2.i.i.i.i = load i32, ptr %.phi.trans.insert.i.i.i.i, align 4, !tbaa !56
  br label %_ZN15ref_vector_coreI4expr19ref_manager_wrapperIS0_11ast_managerEE9push_backEPS0_.exit.i.i

_ZN15ref_vector_coreI4expr19ref_manager_wrapperIS0_11ast_managerEE9push_backEPS0_.exit.i.i: ; preds = %.noexc.i, %29
  %36 = phi ptr [ %.pre.i.i.i.i, %.noexc.i ], [ %13, %29 ]
  %37 = phi i32 [ %.pre2.i.i.i.i, %.noexc.i ], [ %31, %29 ]
  %38 = getelementptr inbounds i8, ptr %36, i64 -4
  %39 = zext i32 %37 to i64
  %40 = getelementptr inbounds nuw ptr, ptr %36, i64 %39
  store ptr %23, ptr %40, align 8, !tbaa !35
  %41 = add i32 %37, 1
  store i32 %41, ptr %38, align 4, !tbaa !56
  %indvars.iv.next.i.i = add nuw nsw i64 %indvars.iv.i.i, 1
  br label %12, !llvm.loop !84

42:                                               ; preds = %35
  %43 = landingpad { ptr, i32 }
          cleanup
  tail call void @_ZN15ref_vector_coreI4expr19ref_manager_wrapperIS0_11ast_managerEED2Ev(ptr noundef nonnull align 8 dereferenceable(16) %7) #24
  resume { ptr, i32 } %43

_ZN10ref_vectorI4expr11ast_managerEC2ERKS2_.exit: ; preds = %_ZNK15ref_vector_coreI4expr19ref_manager_wrapperIS0_11ast_managerEE4sizeEv.exit.i.i
  %44 = getelementptr inbounds nuw i8, ptr %0, i64 24
  store ptr %3, ptr %44, align 8, !tbaa !85
  %45 = getelementptr inbounds nuw i8, ptr %0, i64 32
  store ptr %4, ptr %45, align 8, !tbaa !86
  ret void
}